; Function Attrs: nounwind uwtable
define void @png_write_tEXt(ptr noalias noundef %0, ptr noundef %1, ptr noundef %2, i64 %3) local_unnamed_addr #1 {
  %5 = alloca [4 x i8], align 1
  %6 = alloca [8 x i8], align 1
  %7 = alloca [80 x i8], align 16
  call void @llvm.lifetime.start.p0(i64 80, ptr nonnull %7) #12
  %8 = call i32 @png_check_keyword(ptr noundef %0, ptr noundef %1, ptr noundef nonnull %7) #12
  %9 = icmp eq i32 %8, 0
  br i1 %9, label %10, label %11

10:                                               ; preds = %4
  call void @png_error(ptr noundef %0, ptr noundef nonnull @.str.29) #13
  unreachable

11:                                               ; preds = %4
  %12 = icmp eq ptr %2, null
  br i1 %12, label %.thread, label %13

13:                                               ; preds = %11
  %14 = load i8, ptr %2, align 1, !tbaa !3
  %15 = icmp eq i8 %14, 0
  br i1 %15, label %.thread, label %16

16:                                               ; preds = %13
  %17 = call i64 @strlen(ptr noundef nonnull dereferenceable(1) %2) #14
  %18 = sub i32 2147483646, %8
  %19 = zext i32 %18 to i64
  %20 = icmp ugt i64 %17, %19
  br i1 %20, label %21, label %.thread

21:                                               ; preds = %16
  call void @png_error(ptr noundef %0, ptr noundef nonnull @.str.30) #13
  unreachable

.thread:                                          ; preds = %11, %13, %16
  %.024 = phi i64 [ %17, %16 ], [ 0, %13 ], [ 0, %11 ]
  call void @llvm.experimental.noalias.scope.decl(metadata !191)
  call void @llvm.lifetime.start.p0(i64 8, ptr nonnull %6) #12, !noalias !191
  %.not30 = icmp eq ptr %0, null
  br i1 %.not30, label %png_write_chunk_data.exit22, label %png_write_chunk_header.exit

png_write_chunk_header.exit:                      ; preds = %.thread
  %22 = trunc i64 %.024 to i32
  %23 = add i32 %8, 1
  %24 = add i32 %23, %22
  %25 = getelementptr inbounds nuw i8, ptr %0, i64 1196
  store i32 34, ptr %25, align 4, !tbaa !6, !alias.scope !191
  %26 = lshr i32 %24, 24
  %27 = trunc nuw i32 %26 to i8
  store i8 %27, ptr %6, align 1, !tbaa !3, !noalias !191
  %28 = lshr i32 %24, 16
  %29 = trunc i32 %28 to i8
  %30 = getelementptr inbounds nuw i8, ptr %6, i64 1
  store i8 %29, ptr %30, align 1, !tbaa !3, !noalias !191
  %31 = lshr i32 %24, 8
  %32 = trunc i32 %31 to i8
  %33 = getelementptr inbounds nuw i8, ptr %6, i64 2
  store i8 %32, ptr %33, align 1, !tbaa !3, !noalias !191
  %34 = trunc i32 %24 to i8
  %35 = getelementptr inbounds nuw i8, ptr %6, i64 3
  store i8 %34, ptr %35, align 1, !tbaa !3, !noalias !191
  %36 = getelementptr inbounds nuw i8, ptr %6, i64 4
  store i8 116, ptr %36, align 1, !tbaa !3, !noalias !191
  %37 = getelementptr inbounds nuw i8, ptr %6, i64 5
  store i8 69, ptr %37, align 1, !tbaa !3, !noalias !191
  %38 = getelementptr inbounds nuw i8, ptr %6, i64 6
  store i8 88, ptr %38, align 1, !tbaa !3, !noalias !191
  %39 = getelementptr inbounds nuw i8, ptr %6, i64 7
  store i8 116, ptr %39, align 1, !tbaa !3, !noalias !191
  call void @png_write_data(ptr noundef nonnull %0, ptr noundef nonnull %6, i64 noundef 8) #12
  %40 = getelementptr inbounds nuw i8, ptr %0, i64 544
  store i32 1950701684, ptr %40, align 8, !tbaa !28, !alias.scope !191
  call void @png_reset_crc(ptr noundef nonnull %0) #12
  call void @png_calculate_crc(ptr noundef nonnull %0, ptr noundef nonnull %36, i64 noundef 4) #12
  store i32 66, ptr %25, align 4, !tbaa !6, !alias.scope !191
  call void @llvm.lifetime.end.p0(i64 8, ptr nonnull %6) #12, !noalias !191
  %.not26 = icmp eq i32 %23, 0
  br i1 %.not26, label %png_write_chunk_data.exit, label %41

41:                                               ; preds = %png_write_chunk_header.exit
  %42 = zext i32 %23 to i64
  call void @png_write_data(ptr noundef nonnull %0, ptr noundef nonnull %7, i64 noundef %42) #12
  call void @png_calculate_crc(ptr noundef nonnull %0, ptr noundef nonnull %7, i64 noundef %42) #12
  br label %png_write_chunk_data.exit

png_write_chunk_data.exit:                        ; preds = %png_write_chunk_header.exit, %41
  %.not = icmp ne i64 %.024, 0
  %43 = icmp ne ptr %2, null
  %44 = and i1 %43, %.not
  br i1 %44, label %png_write_chunk_data.exit22.thread, label %png_write_chunk_data.exit22.thread29

png_write_chunk_data.exit22.thread:               ; preds = %png_write_chunk_data.exit
  call void @png_write_data(ptr noundef nonnull %0, ptr noundef nonnull %2, i64 noundef %.024) #12
  call void @png_calculate_crc(ptr noundef nonnull %0, ptr noundef nonnull %2, i64 noundef %.024) #12
  br label %png_write_chunk_data.exit22.thread29

png_write_chunk_data.exit22:                      ; preds = %.thread
  call void @llvm.lifetime.end.p0(i64 8, ptr nonnull %6) #12, !noalias !191
  call void @llvm.experimental.noalias.scope.decl(metadata !194)
  call void @llvm.lifetime.start.p0(i64 4, ptr nonnull %5) #12, !noalias !194
  br label %png_write_chunk_end.exit

png_write_chunk_data.exit22.thread29:             ; preds = %png_write_chunk_data.exit, %png_write_chunk_data.exit22.thread
  call void @llvm.lifetime.start.p0(i64 4, ptr nonnull %5) #12, !noalias !197
  %45 = getelementptr inbounds nuw i8, ptr %0, i64 1196
  store i32 130, ptr %45, align 4, !tbaa !6, !alias.scope !194
  %46 = getelementptr inbounds nuw i8, ptr %0, i64 596
  %47 = load i32, ptr %46, align 4, !tbaa !29, !alias.scope !194
  %48 = lshr i32 %47, 24
  %49 = trunc nuw i32 %48 to i8
  store i8 %49, ptr %5, align 1, !tbaa !3, !noalias !194
  %50 = lshr i32 %47, 16
  %51 = trunc i32 %50 to i8
  %52 = getelementptr inbounds nuw i8, ptr %5, i64 1
  store i8 %51, ptr %52, align 1, !tbaa !3, !noalias !194
  %53 = lshr i32 %47, 8
  %54 = trunc i32 %53 to i8
  %55 = getelementptr inbounds nuw i8, ptr %5, i64 2
  store i8 %54, ptr %55, align 1, !tbaa !3, !noalias !194
  %56 = trunc i32 %47 to i8
  %57 = getelementptr inbounds nuw i8, ptr %5, i64 3
  store i8 %56, ptr %57, align 1, !tbaa !3, !noalias !194
  call void @png_write_data(ptr noundef nonnull %0, ptr noundef nonnull %5, i64 noundef 4) #12
  br label %png_write_chunk_end.exit

png_write_chunk_end.exit:                         ; preds = %png_write_chunk_data.exit22, %png_write_chunk_data.exit22.thread29
  call void @llvm.lifetime.end.p0(i64 4, ptr nonnull %5) #12, !noalias !194
  call void @llvm.lifetime.end.p0(i64 80, ptr nonnull %7) #12
  ret void
}